target datalayout = "e-m:e-p270:32:32-p271:32:32-p272:64:64-i64:64-i128:128-f80:128-n8:16:32:64-S128"
target triple = "x86_64-pc-linux-gnu"

%struct.LZ4F_CustomMem = type { ptr, ptr, ptr, ptr }
%struct.LZ4F_preferences_t = type { %struct.LZ4F_frameInfo_t, i32, i32, i32, [3 x i32] }
%struct.LZ4F_frameInfo_t = type { i32, i32, i32, i32, i64, i32, i32 }
%struct.LZ4F_cctx_s = type { %struct.LZ4F_CustomMem, %struct.LZ4F_preferences_t, i32, i32, ptr, i64, i64, ptr, ptr, i64, i64, %struct.XXH32_state_s, ptr, i16, i16, i32 }
%struct.XXH32_state_s = type { i32, i32, i32, i32, i32, i32, [4 x i32], i32, i32 }
%union.LZ4_stream_u = type { %struct.LZ4_stream_t_internal }
%struct.LZ4_stream_t_internal = type { [4096 x i32], ptr, ptr, i32, i32, i32 }

; Function Attrs: nounwind uwtable
define internal void @LZ4F_free(ptr noundef %0, ptr noundef byval(%struct.LZ4F_CustomMem) align 8 %1) #0 {
  %3 = alloca ptr, align 8
  store ptr %0, ptr %3, align 8, !tbaa !12
  %4 = load ptr, ptr %3, align 8, !tbaa !12
  %5 = icmp eq ptr %4, null
  br i1 %5, label %6, label %7

6:                                                ; preds = %2
  br label %19

7:                                                ; preds = %2
  %8 = getelementptr inbounds nuw %struct.LZ4F_CustomMem, ptr %1, i32 0, i32 2
  %9 = load ptr, ptr %8, align 8, !tbaa !47
  %10 = icmp ne ptr %9, null
  br i1 %10, label %11, label %17

11:                                               ; preds = %7
  %12 = getelementptr inbounds nuw %struct.LZ4F_CustomMem, ptr %1, i32 0, i32 2
  %13 = load ptr, ptr %12, align 8, !tbaa !47
  %14 = getelementptr inbounds nuw %struct.LZ4F_CustomMem, ptr %1, i32 0, i32 3
  %15 = load ptr, ptr %14, align 8, !tbaa !48
  %16 = load ptr, ptr %3, align 8, !tbaa !12
  call void %13(ptr noundef %15, ptr noundef %16)
  br label %19

17:                                               ; preds = %7
  %18 = load ptr, ptr %3, align 8, !tbaa !12
  call void @free(ptr noundef %18) #8
  br label %19

19:                                               ; preds = %17, %11, %6
  ret void
}

; Function Attrs: nounwind uwtable
define i64 @LZ4F_compressFrame(ptr noundef %0, i64 noundef %1, ptr noundef %2, i64 noundef %3, ptr noundef %4) #0 {
  %6 = alloca ptr, align 8
  %7 = alloca i64, align 8
  %8 = alloca ptr, align 8
  %9 = alloca i64, align 8
  %10 = alloca ptr, align 8
  %11 = alloca i64, align 8
  %12 = alloca %struct.LZ4F_cctx_s, align 8
  %13 = alloca %union.LZ4_stream_u, align 8
  %14 = alloca ptr, align 8
  store ptr %0, ptr %6, align 8, !tbaa !12
  store i64 %1, ptr %7, align 8, !tbaa !3
  store ptr %2, ptr %8, align 8, !tbaa !12
  store i64 %3, ptr %9, align 8, !tbaa !3
  store ptr %4, ptr %10, align 8, !tbaa !12
  call void @llvm.lifetime.start.p0(i64 8, ptr %11) #8
  call void @llvm.lifetime.start.p0(i64 216, ptr %12) #8
  call void @llvm.lifetime.start.p0(i64 16416, ptr %13) #8
  call void @llvm.lifetime.start.p0(i64 8, ptr %14) #8
  store ptr %12, ptr %14, align 8, !tbaa !23
  call void @llvm.memset.p0.i64(ptr align 8 %12, i8 0, i64 216, i1 false)
  %15 = getelementptr inbounds nuw %struct.LZ4F_cctx_s, ptr %12, i32 0, i32 2
  store i32 100, ptr %15, align 8, !tbaa !41
  %16 = getelementptr inbounds nuw %struct.LZ4F_cctx_s, ptr %12, i32 0, i32 6
  store i64 5242880, ptr %16, align 8, !tbaa !42
  %17 = load ptr, ptr %10, align 8, !tbaa !12
  %18 = icmp eq ptr %17, null
  br i1 %18, label %24, label %19

19:                                               ; preds = %5
  %20 = load ptr, ptr %10, align 8, !tbaa !12
  %21 = getelementptr inbounds nuw %struct.LZ4F_preferences_t, ptr %20, i32 0, i32 1
  %22 = load i32, ptr %21, align 8, !tbaa !43
  %23 = icmp slt i32 %22, 2
  br i1 %23, label %24, label %32

24:                                               ; preds = %19, %5
  %25 = call ptr @LZ4_initStream(ptr noundef %13, i64 noundef 16416)
  %26 = load ptr, ptr %14, align 8, !tbaa !23
  %27 = getelementptr inbounds nuw %struct.LZ4F_cctx_s, ptr %26, i32 0, i32 12
  store ptr %13, ptr %27, align 8, !tbaa !44
  %28 = load ptr, ptr %14, align 8, !tbaa !23
  %29 = getelementptr inbounds nuw %struct.LZ4F_cctx_s, ptr %28, i32 0, i32 13
  store i16 1, ptr %29, align 8, !tbaa !45
  %30 = load ptr, ptr %14, align 8, !tbaa !23
  %31 = getelementptr inbounds nuw %struct.LZ4F_cctx_s, ptr %30, i32 0, i32 14
  store i16 1, ptr %31, align 2, !tbaa !46
  br label %32

32:                                               ; preds = %24, %19
  %33 = load ptr, ptr %14, align 8, !tbaa !23
  %34 = load ptr, ptr %6, align 8, !tbaa !12
  %35 = load i64, ptr %7, align 8, !tbaa !3
  %36 = load ptr, ptr %8, align 8, !tbaa !12
  %37 = load i64, ptr %9, align 8, !tbaa !3
  %38 = load ptr, ptr %10, align 8, !tbaa !12
  %39 = call i64 @LZ4F_compressFrame_usingCDict(ptr noundef %33, ptr noundef %34, i64 noundef %35, ptr noundef %36, i64 noundef %37, ptr noundef null, ptr noundef %38)
  store i64 %39, ptr %11, align 8, !tbaa !3
  %40 = load ptr, ptr %10, align 8, !tbaa !12
  %41 = icmp ne ptr %40, null
  br i1 %41, label %42, label %53

42:                                               ; preds = %32
  %43 = load ptr, ptr %10, align 8, !tbaa !12
  %44 = getelementptr inbounds nuw %struct.LZ4F_preferences_t, ptr %43, i32 0, i32 1
  %45 = load i32, ptr %44, align 8, !tbaa !43
  %46 = icmp sge i32 %45, 2
  br i1 %46, label %47, label %53

47:                                               ; preds = %42
  %48 = load ptr, ptr %14, align 8, !tbaa !23
  %49 = getelementptr inbounds nuw %struct.LZ4F_cctx_s, ptr %48, i32 0, i32 12
  %50 = load ptr, ptr %49, align 8, !tbaa !44
  %51 = load ptr, ptr %14, align 8, !tbaa !23
  %52 = getelementptr inbounds nuw %struct.LZ4F_cctx_s, ptr %51, i32 0, i32 0
  call void @LZ4F_free(ptr noundef %50, ptr noundef byval(%struct.LZ4F_CustomMem) align 8 %52)
  br label %53

53:                                               ; preds = %47, %42, %32
  %54 = load i64, ptr %11, align 8, !tbaa !3
  call void @llvm.lifetime.end.p0(i64 8, ptr %14) #8
  call void @llvm.lifetime.end.p0(i64 16416, ptr %13) #8
  call void @llvm.lifetime.end.p0(i64 216, ptr %12) #8
  call void @llvm.lifetime.end.p0(i64 8, ptr %11) #8
  ret i64 %54
}