; Function Attrs: nounwind uwtable
define i64 @LZ4F_compressFrame(ptr noundef %0, i64 noundef %1, ptr noundef %2, i64 noundef %3, ptr noundef captures(address_is_null) %4) local_unnamed_addr #5 {
  %6 = alloca %struct.LZ4F_cctx_s, align 8
  %7 = alloca %union.LZ4_stream_u, align 8
  call void @llvm.lifetime.start.p0(i64 216, ptr nonnull %6) #13
  call void @llvm.lifetime.start.p0(i64 16416, ptr nonnull %7) #13
  call void @llvm.memset.p0.i64(ptr noundef nonnull align 8 dereferenceable(216) %6, i8 0, i64 216, i1 false)
  %8 = getelementptr inbounds nuw i8, ptr %6, i64 88
  store i32 100, ptr %8, align 8, !tbaa !35
  %9 = getelementptr inbounds nuw i8, ptr %6, i64 112
  store i64 5242880, ptr %9, align 8, !tbaa !36
  %10 = icmp eq ptr %4, null
  br i1 %10, label %16, label %11

11:                                               ; preds = %5
  %12 = getelementptr inbounds nuw i8, ptr %4, i64 32
  %13 = load i32, ptr %12, align 8, !tbaa !37
  %14 = icmp slt i32 %13, 2
  br i1 %14, label %16, label %.thread

.thread:                                          ; preds = %11
  %15 = call i64 @LZ4F_compressFrame_usingCDict(ptr noundef nonnull %6, ptr noundef %0, i64 noundef %1, ptr noundef %2, i64 noundef %3, ptr noundef null, ptr noundef nonnull %4)
  br label %22

16:                                               ; preds = %5, %11
  %17 = call ptr @LZ4_initStream(ptr noundef nonnull %7, i64 noundef 16416) #13
  %18 = getelementptr inbounds nuw i8, ptr %6, i64 200
  store ptr %7, ptr %18, align 8, !tbaa !38
  %19 = getelementptr inbounds nuw i8, ptr %6, i64 208
  store i16 1, ptr %19, align 8, !tbaa !39
  %20 = getelementptr inbounds nuw i8, ptr %6, i64 210
  store i16 1, ptr %20, align 2, !tbaa !40
  %21 = call i64 @LZ4F_compressFrame_usingCDict(ptr noundef nonnull %6, ptr noundef %0, i64 noundef %1, ptr noundef %2, i64 noundef %3, ptr noundef null, ptr noundef %4)
  br i1 %10, label %LZ4F_free.exit, label %22

22:                                               ; preds = %.thread, %16
  %phi.call19 = phi i64 [ %15, %.thread ], [ %21, %16 ]
  %23 = getelementptr inbounds nuw i8, ptr %4, i64 32
  %24 = load i32, ptr %23, align 8, !tbaa !37
  %25 = icmp sgt i32 %24, 1
  br i1 %25, label %26, label %LZ4F_free.exit

26:                                               ; preds = %22
  %27 = getelementptr inbounds nuw i8, ptr %6, i64 200
  %28 = load ptr, ptr %27, align 8, !tbaa !38
  %29 = getelementptr inbounds nuw i8, ptr %6, i64 16
  %.val = load ptr, ptr %29, align 8
  %30 = getelementptr inbounds nuw i8, ptr %6, i64 24
  %.val17 = load ptr, ptr %30, align 8
  %31 = icmp eq ptr %28, null
  br i1 %31, label %LZ4F_free.exit, label %32

32:                                               ; preds = %26
  %.not.i = icmp eq ptr %.val, null
  br i1 %.not.i, label %34, label %33

33:                                               ; preds = %32
  call void %.val(ptr noundef %.val17, ptr noundef nonnull %28) #13
  br label %LZ4F_free.exit

34:                                               ; preds = %32
  call void @free(ptr noundef nonnull %28) #13
  br label %LZ4F_free.exit

LZ4F_free.exit:                                   ; preds = %34, %33, %26, %22, %16
  %phi.call20 = phi i64 [ %phi.call19, %22 ], [ %21, %16 ], [ %phi.call19, %26 ], [ %phi.call19, %33 ], [ %phi.call19, %34 ]
  call void @llvm.lifetime.end.p0(i64 16416, ptr nonnull %7) #13
  call void @llvm.lifetime.end.p0(i64 216, ptr nonnull %6) #13
  ret i64 %phi.call20
}